((lp1
V\u000a
aV 
aV!
aV$
aV&
aV'
aV,
aV-
aV.
aV3
aV:
aV;
aV?
aVA
aVB
aVC
aVD
aVE
aVF
aVG
aVH
aVI
aVJ
aVK
aVL
aVM
aVN
aVO
aVP
aVQ
aVR
aVS
aVT
aVU
aVV
aVW
aVX
aVY
aVZ
aVa
aVb
aVc
aVd
aVe
aVf
aVg
aVh
aVi
aVj
aVk
aVl
aVm
aVn
aVo
aVp
aVq
aVr
aVs
aVt
aVu
aVv
aVw
aVx
aVy
aVz
a(dp2
V\u000a
I0
sV!
I2
sV 
I1
sV$
I3
sV'
I5
sV&
I4
sV-
I7
sV,
I6
sV.
I8
sV3
I9
sV;
I11
sV:
I10
sV?
I12
sVA
I13
sVC
I15
sVB
I14
sVE
I17
sVD
I16
sVG
I19
sVF
I18
sVI
I21
sVH
I20
sVK
I23
sVJ
I22
sVM
I25
sVL
I24
sVO
I27
sVN
I26
sVQ
I29
sVP
I28
sVS
I31
sVR
I30
sVU
I33
sVT
I32
sVW
I35
sVV
I34
sVY
I37
sVX
I36
sVZ
I38
sVa
I39
sVc
I41
sVb
I40
sVe
I43
sVd
I42
sVg
I45
sVf
I44
sVi
I47
sVh
I46
sVk
I49
sVj
I48
sVm
I51
sVl
I50
sVo
I53
sVn
I52
sVq
I55
sVp
I54
sVs
I57
sVr
I56
sVu
I59
sVt
I58
sVw
I61
sVv
I60
sVy
I63
sVx
I62
sVz
I64
st.